; Function Attrs: inlinehint nofree nosync nounwind memory(readwrite, inaccessiblemem: none) uwtable
define internal fastcc range(i32 0, -2147483648) i32 @Bac_ManBoxNum_rec(ptr noundef captures(none) %0) unnamed_addr #12 {
  %2 = getelementptr inbounds nuw i8, ptr %0, i64 24
  %3 = load i32, ptr %2, align 8, !tbaa !61
  %4 = icmp sgt i32 %3, -1
  br i1 %4, label %34, label %.preheader

.preheader:                                       ; preds = %1
  %5 = getelementptr i8, ptr %0, i64 84
  %.val22 = load i32, ptr %5, align 4, !tbaa !50
  %6 = icmp sgt i32 %.val22, 0
  br i1 %6, label %.lr.ph, label %._crit_edge

.lr.ph:                                           ; preds = %.preheader
  %7 = getelementptr i8, ptr %0, i64 88
  %8 = getelementptr i8, ptr %0, i64 104
  br label %9

9:                                                ; preds = %.lr.ph, %31
  %.val.pre28 = phi i32 [ %.val22, %.lr.ph ], [ %.val.pre29, %31 ]
  %.val26 = phi i32 [ %.val22, %.lr.ph ], [ %.val, %31 ]
  %indvars.iv = phi i64 [ 0, %.lr.ph ], [ %indvars.iv.next, %31 ]
  %.024 = phi i32 [ 0, %.lr.ph ], [ %.1, %31 ]
  %.val18 = load ptr, ptr %7, align 8, !tbaa !52
  %10 = getelementptr inbounds nuw i8, ptr %.val18, i64 %indvars.iv
  %11 = load i8, ptr %10, align 1, !tbaa !53
  %12 = lshr i8 %11, 1
  %13 = add nsw i8 %12, -73
  %14 = icmp ult i8 %13, -68
  br i1 %14, label %31, label %15

15:                                               ; preds = %9
  %.mask.i = and i8 %11, -2
  %.not = icmp eq i8 %.mask.i, 10
  br i1 %.not, label %16, label %28

16:                                               ; preds = %15
  %.val20 = load ptr, ptr %0, align 8, !tbaa !65
  %.val21 = load ptr, ptr %8, align 8, !tbaa !80
  %17 = getelementptr inbounds nuw i32, ptr %.val21, i64 %indvars.iv
  %18 = load i32, ptr %17, align 4, !tbaa !25
  %19 = icmp sgt i32 %18, 0
  br i1 %19, label %Bac_ManNtkIsOk.exit.i.i, label %Bac_BoxNtk.exit

Bac_ManNtkIsOk.exit.i.i:                          ; preds = %16
  %20 = getelementptr i8, ptr %.val20, i64 36
  %.val.i.i.i = load i32, ptr %20, align 4, !tbaa !46
  %.not4.i.i = icmp sgt i32 %18, %.val.i.i.i
  br i1 %.not4.i.i, label %Bac_BoxNtk.exit, label %21

21:                                               ; preds = %Bac_ManNtkIsOk.exit.i.i
  %22 = getelementptr inbounds nuw i8, ptr %.val20, i64 40
  %23 = load ptr, ptr %22, align 8, !tbaa !47
  %24 = zext nneg i32 %18 to i64
  %25 = getelementptr inbounds nuw %struct.Bac_Ntk_t_, ptr %23, i64 %24
  br label %Bac_BoxNtk.exit

Bac_BoxNtk.exit:                                  ; preds = %16, %Bac_ManNtkIsOk.exit.i.i, %21
  %26 = phi ptr [ %25, %21 ], [ null, %Bac_ManNtkIsOk.exit.i.i ], [ null, %16 ]
  %27 = tail call fastcc i32 @Bac_ManBoxNum_rec(ptr noundef %26)
  %.val.pre.pre = load i32, ptr %5, align 4, !tbaa !50
  br label %28

28:                                               ; preds = %15, %Bac_BoxNtk.exit
  %.val.pre = phi i32 [ %.val.pre.pre, %Bac_BoxNtk.exit ], [ %.val.pre28, %15 ]
  %29 = phi i32 [ %27, %Bac_BoxNtk.exit ], [ 1, %15 ]
  %30 = add nuw nsw i32 %29, %.024
  br label %31

31:                                               ; preds = %28, %9
  %.val.pre29 = phi i32 [ %.val.pre, %28 ], [ %.val.pre28, %9 ]
  %.val = phi i32 [ %.val.pre, %28 ], [ %.val26, %9 ]
  %.1 = phi i32 [ %30, %28 ], [ %.024, %9 ]
  %indvars.iv.next = add nuw nsw i64 %indvars.iv, 1
  %32 = sext i32 %.val to i64
  %33 = icmp slt i64 %indvars.iv.next, %32
  br i1 %33, label %9, label %._crit_edge, !llvm.loop !91

._crit_edge:                                      ; preds = %31, %.preheader
  %.0.lcssa = phi i32 [ 0, %.preheader ], [ %.1, %31 ]
  store i32 %.0.lcssa, ptr %2, align 8, !tbaa !61
  br label %34

34:                                               ; preds = %1, %._crit_edge
  %.015 = phi i32 [ %.0.lcssa, %._crit_edge ], [ %3, %1 ]
  ret i32 %.015
}